target datalayout = "e-m:e-p270:32:32-p271:32:32-p272:64:64-i64:64-i128:128-f80:128-n8:16:32:64-S128"
target triple = "x86_64-pc-linux-gnu"

%struct.pcaprec_hdr = type { i32, i32, i32, i32 }

; Function Attrs: null_pointer_is_valid sspstrong uwtable
define hidden zeroext i1 @libpcap_write_packet(ptr noundef %0, i64 noundef %1, i32 noundef %2, i32 noundef %3, i32 noundef %4, ptr noundef %5, ptr noundef %6, ptr noundef %7) #0 {
  %9 = alloca i1, align 1
  %10 = alloca ptr, align 8
  %11 = alloca i64, align 8
  %12 = alloca i32, align 4
  %13 = alloca i32, align 4
  %14 = alloca i32, align 4
  %15 = alloca ptr, align 8
  %16 = alloca ptr, align 8
  %17 = alloca ptr, align 8
  %18 = alloca %struct.pcaprec_hdr, align 4
  %19 = alloca i32, align 4
  store ptr %0, ptr %10, align 8
  store i64 %1, ptr %11, align 8
  store i32 %2, ptr %12, align 4
  store i32 %3, ptr %13, align 4
  store i32 %4, ptr %14, align 4
  store ptr %5, ptr %15, align 8
  store ptr %6, ptr %16, align 8
  store ptr %7, ptr %17, align 8
  call void @llvm.lifetime.start.p0(i64 16, ptr %18) #12
  %20 = load i64, ptr %11, align 8
  %21 = trunc i64 %20 to i32
  %22 = getelementptr inbounds nuw %struct.pcaprec_hdr, ptr %18, i32 0, i32 0
  store i32 %21, ptr %22, align 4
  %23 = load i32, ptr %12, align 4
  %24 = getelementptr inbounds nuw %struct.pcaprec_hdr, ptr %18, i32 0, i32 1
  store i32 %23, ptr %24, align 4
  %25 = load i32, ptr %13, align 4
  %26 = getelementptr inbounds nuw %struct.pcaprec_hdr, ptr %18, i32 0, i32 2
  store i32 %25, ptr %26, align 4
  %27 = load i32, ptr %14, align 4
  %28 = getelementptr inbounds nuw %struct.pcaprec_hdr, ptr %18, i32 0, i32 3
  store i32 %27, ptr %28, align 4
  %29 = load ptr, ptr %10, align 8
  %30 = load ptr, ptr %16, align 8
  %31 = load ptr, ptr %17, align 8
  %32 = call zeroext i1 @write_to_file(ptr noundef %29, ptr noundef %18, i64 noundef 16, ptr noundef %30, ptr noundef %31)
  br i1 %32, label %34, label %33

33:                                               ; preds = %8
  store i1 false, ptr %9, align 1
  store i32 1, ptr %19, align 4
  br label %42

34:                                               ; preds = %8
  %35 = load ptr, ptr %10, align 8
  %36 = load ptr, ptr %15, align 8
  %37 = load i32, ptr %13, align 4
  %38 = zext i32 %37 to i64
  %39 = load ptr, ptr %16, align 8
  %40 = load ptr, ptr %17, align 8
  %41 = call zeroext i1 @write_to_file(ptr noundef %35, ptr noundef %36, i64 noundef %38, ptr noundef %39, ptr noundef %40)
  store i1 %41, ptr %9, align 1
  store i32 1, ptr %19, align 4
  br label %42

42:                                               ; preds = %34, %33
  call void @llvm.lifetime.end.p0(i64 16, ptr %18) #12
  %43 = load i1, ptr %9, align 1
  ret i1 %43
}