; Function Attrs: null_pointer_is_valid sspstrong uwtable
define hidden noundef zeroext i1 @libpcap_write_packet(ptr noundef readonly captures(none) %0, i64 noundef %1, i32 noundef %2, i32 noundef %3, i32 noundef %4, ptr noundef %5, ptr noundef captures(none) %6, ptr noundef writeonly captures(none) %7) local_unnamed_addr #0 {
  %9 = alloca %struct.pcaprec_hdr, align 4
  call void @llvm.lifetime.start.p0(i64 16, ptr nonnull %9) #14
  %10 = trunc i64 %1 to i32
  store i32 %10, ptr %9, align 4
  %11 = getelementptr inbounds nuw i8, ptr %9, i64 4
  store i32 %2, ptr %11, align 4
  %12 = getelementptr inbounds nuw i8, ptr %9, i64 8
  store i32 %3, ptr %12, align 4
  %13 = getelementptr inbounds nuw i8, ptr %9, i64 12
  store i32 %4, ptr %13, align 4
  %14 = call fastcc zeroext i1 @write_to_file(ptr noundef %0, ptr noundef nonnull %9, i64 noundef 16, ptr noundef %6, ptr noundef %7)
  br i1 %14, label %15, label %18

15:                                               ; preds = %8
  %16 = zext i32 %3 to i64
  %17 = call fastcc zeroext i1 @write_to_file(ptr noundef %0, ptr noundef %5, i64 noundef %16, ptr noundef %6, ptr noundef %7)
  br label %18

18:                                               ; preds = %8, %15
  %.0 = phi i1 [ %17, %15 ], [ false, %8 ]
  call void @llvm.lifetime.end.p0(i64 16, ptr nonnull %9) #14
  ret i1 %.0
}